target datalayout = "e-m:e-p270:32:32-p271:32:32-p272:64:64-i64:64-i128:128-f80:128-n8:16:32:64-S128"
target triple = "x86_64-pc-linux-gnu"

%struct.mbedtls_mpi = type { ptr, i16, i16 }

; Function Attrs: nounwind uwtable
define hidden i32 @mbedtls_mpi_get_bit(ptr noundef %0, i64 noundef %1) #0 {
  %3 = alloca i32, align 4
  %4 = alloca ptr, align 8
  %5 = alloca i64, align 8
  store ptr %0, ptr %4, align 8, !tbaa !3
  store i64 %1, ptr %5, align 8, !tbaa !15
  %6 = load ptr, ptr %4, align 8, !tbaa !3
  %7 = getelementptr inbounds nuw %struct.mbedtls_mpi, ptr %6, i32 0, i32 2
  %8 = load i16, ptr %7, align 2, !tbaa !10
  %9 = zext i16 %8 to i64
  %10 = mul i64 %9, 64
  %11 = load i64, ptr %5, align 8, !tbaa !15
  %12 = icmp ule i64 %10, %11
  br i1 %12, label %13, label %14

13:                                               ; preds = %2
  store i32 0, ptr %3, align 4
  br label %27

14:                                               ; preds = %2
  %15 = load ptr, ptr %4, align 8, !tbaa !3
  %16 = getelementptr inbounds nuw %struct.mbedtls_mpi, ptr %15, i32 0, i32 0
  %17 = load ptr, ptr %16, align 8, !tbaa !17
  %18 = load i64, ptr %5, align 8, !tbaa !15
  %19 = udiv i64 %18, 64
  %20 = getelementptr inbounds nuw i64, ptr %17, i64 %19
  %21 = load i64, ptr %20, align 8, !tbaa !15
  %22 = load i64, ptr %5, align 8, !tbaa !15
  %23 = urem i64 %22, 64
  %24 = lshr i64 %21, %23
  %25 = and i64 %24, 1
  %26 = trunc i64 %25 to i32
  store i32 %26, ptr %3, align 4
  br label %27

27:                                               ; preds = %14, %13
  %28 = load i32, ptr %3, align 4
  ret i32 %28
}