; Function Attrs: mustprogress nofree norecurse nosync nounwind willreturn memory(read, inaccessiblemem: none) uwtable
define hidden range(i32 0, 2) i32 @mbedtls_mpi_get_bit(ptr noundef readonly captures(none) %0, i64 noundef %1) local_unnamed_addr #8 {
  %3 = getelementptr inbounds nuw i8, ptr %0, i64 10
  %4 = load i16, ptr %3, align 2, !tbaa !3
  %5 = zext i16 %4 to i64
  %6 = shl nuw nsw i64 %5, 6
  %.not = icmp ugt i64 %6, %1
  br i1 %.not, label %7, label %16

7:                                                ; preds = %2
  %8 = load ptr, ptr %0, align 8, !tbaa !12
  %9 = lshr i64 %1, 6
  %10 = getelementptr inbounds nuw i64, ptr %8, i64 %9
  %11 = load i64, ptr %10, align 8, !tbaa !17
  %12 = and i64 %1, 63
  %13 = lshr i64 %11, %12
  %14 = trunc i64 %13 to i32
  %15 = and i32 %14, 1
  br label %16

16:                                               ; preds = %2, %7
  %.0 = phi i32 [ %15, %7 ], [ 0, %2 ]
  ret i32 %.0
}